target datalayout = "e-m:e-p270:32:32-p271:32:32-p272:64:64-i64:64-i128:128-f80:128-n8:16:32:64-S128"
target triple = "x86_64-pc-linux-gnu"

%struct.anon = type { i64, double, double, double, double, double }

@.str.10 = private unnamed_addr constant [19 x i8] c"N_VGetArrayPointer\00", align 1
@stderr = external global ptr, align 8
@.str.53 = private unnamed_addr constant [55 x i8] c"\0ASUNDIALS_ERROR: %s() failed - returned NULL pointer\0A\0A\00", align 1
@.str.54 = private unnamed_addr constant [46 x i8] c"\0ASUNDIALS_ERROR: %s() failed with flag = %d\0A\0A\00", align 1
@.str.55 = private unnamed_addr constant [53 x i8] c"\0AMEMORY_ERROR: %s() failed - returned NULL pointer\0A\0A\00", align 1

; Function Attrs: nounwind uwtable
define internal i32 @check_retval(ptr noundef %0, ptr noundef %1, i32 noundef %2) #0 {
  %4 = alloca i32, align 4
  %5 = alloca ptr, align 8
  %6 = alloca ptr, align 8
  %7 = alloca i32, align 4
  %8 = alloca ptr, align 8
  %9 = alloca i32, align 4
  store ptr %0, ptr %5, align 8, !tbaa !21
  store ptr %1, ptr %6, align 8, !tbaa !37
  store i32 %2, ptr %7, align 4, !tbaa !4
  call void @llvm.lifetime.start.p0(i64 8, ptr %8) #6
  %10 = load i32, ptr %7, align 4, !tbaa !4
  %11 = icmp eq i32 %10, 0
  br i1 %11, label %12, label %19

12:                                               ; preds = %3
  %13 = load ptr, ptr %5, align 8, !tbaa !21
  %14 = icmp eq ptr %13, null
  br i1 %14, label %15, label %19

15:                                               ; preds = %12
  %16 = load ptr, ptr @stderr, align 8, !tbaa !35
  %17 = load ptr, ptr %6, align 8, !tbaa !37
  %18 = call i32 (ptr, ptr, ...) @fprintf(ptr noundef %16, ptr noundef @.str.53, ptr noundef %17) #6
  store i32 1, ptr %4, align 4
  store i32 1, ptr %9, align 4
  br label %47

19:                                               ; preds = %12, %3
  %20 = load i32, ptr %7, align 4, !tbaa !4
  %21 = icmp eq i32 %20, 1
  br i1 %21, label %22, label %34

22:                                               ; preds = %19
  %23 = load ptr, ptr %5, align 8, !tbaa !21
  store ptr %23, ptr %8, align 8, !tbaa !39
  %24 = load ptr, ptr %8, align 8, !tbaa !39
  %25 = load i32, ptr %24, align 4, !tbaa !4
  %26 = icmp slt i32 %25, 0
  br i1 %26, label %27, label %33

27:                                               ; preds = %22
  %28 = load ptr, ptr @stderr, align 8, !tbaa !35
  %29 = load ptr, ptr %6, align 8, !tbaa !37
  %30 = load ptr, ptr %8, align 8, !tbaa !39
  %31 = load i32, ptr %30, align 4, !tbaa !4
  %32 = call i32 (ptr, ptr, ...) @fprintf(ptr noundef %28, ptr noundef @.str.54, ptr noundef %29, i32 noundef %31) #6
  store i32 1, ptr %4, align 4
  store i32 1, ptr %9, align 4
  br label %47

33:                                               ; preds = %22
  br label %45

34:                                               ; preds = %19
  %35 = load i32, ptr %7, align 4, !tbaa !4
  %36 = icmp eq i32 %35, 2
  br i1 %36, label %37, label %44

37:                                               ; preds = %34
  %38 = load ptr, ptr %5, align 8, !tbaa !21
  %39 = icmp eq ptr %38, null
  br i1 %39, label %40, label %44

40:                                               ; preds = %37
  %41 = load ptr, ptr @stderr, align 8, !tbaa !35
  %42 = load ptr, ptr %6, align 8, !tbaa !37
  %43 = call i32 (ptr, ptr, ...) @fprintf(ptr noundef %41, ptr noundef @.str.55, ptr noundef %42) #6
  store i32 1, ptr %4, align 4
  store i32 1, ptr %9, align 4
  br label %47

44:                                               ; preds = %37, %34
  br label %45

45:                                               ; preds = %44, %33
  br label %46

46:                                               ; preds = %45
  store i32 0, ptr %4, align 4
  store i32 1, ptr %9, align 4
  br label %47

47:                                               ; preds = %46, %40, %27, %15
  call void @llvm.lifetime.end.p0(i64 8, ptr %8) #6
  %48 = load i32, ptr %4, align 4
  ret i32 %48
}

; Function Attrs: nounwind uwtable
define internal i32 @ff(double noundef %0, ptr noundef %1, ptr noundef %2, ptr noundef %3) #0 {
  %5 = alloca i32, align 4
  %6 = alloca double, align 8
  %7 = alloca ptr, align 8
  %8 = alloca ptr, align 8
  %9 = alloca ptr, align 8
  %10 = alloca ptr, align 8
  %11 = alloca i64, align 8
  %12 = alloca double, align 8
  %13 = alloca double, align 8
  %14 = alloca double, align 8
  %15 = alloca ptr, align 8
  %16 = alloca ptr, align 8
  %17 = alloca double, align 8
  %18 = alloca double, align 8
  %19 = alloca double, align 8
  %20 = alloca i64, align 8
  %21 = alloca i32, align 4
  store double %0, ptr %6, align 8, !tbaa !11
  store ptr %1, ptr %7, align 8, !tbaa !15
  store ptr %2, ptr %8, align 8, !tbaa !15
  store ptr %3, ptr %9, align 8, !tbaa !21
  call void @llvm.lifetime.start.p0(i64 8, ptr %10) #6
  %22 = load ptr, ptr %9, align 8, !tbaa !21
  store ptr %22, ptr %10, align 8, !tbaa !21
  call void @llvm.lifetime.start.p0(i64 8, ptr %11) #6
  %23 = load ptr, ptr %10, align 8, !tbaa !21
  %24 = getelementptr inbounds nuw %struct.anon, ptr %23, i32 0, i32 0
  %25 = load i64, ptr %24, align 8, !tbaa !26
  store i64 %25, ptr %11, align 8, !tbaa !13
  call void @llvm.lifetime.start.p0(i64 8, ptr %12) #6
  %26 = load ptr, ptr %10, align 8, !tbaa !21
  %27 = getelementptr inbounds nuw %struct.anon, ptr %26, i32 0, i32 2
  %28 = load double, ptr %27, align 8, !tbaa !28
  store double %28, ptr %12, align 8, !tbaa !11
  call void @llvm.lifetime.start.p0(i64 8, ptr %13) #6
  %29 = load ptr, ptr %10, align 8, !tbaa !21
  %30 = getelementptr inbounds nuw %struct.anon, ptr %29, i32 0, i32 3
  %31 = load double, ptr %30, align 8, !tbaa !29
  store double %31, ptr %13, align 8, !tbaa !11
  call void @llvm.lifetime.start.p0(i64 8, ptr %14) #6
  %32 = load ptr, ptr %10, align 8, !tbaa !21
  %33 = getelementptr inbounds nuw %struct.anon, ptr %32, i32 0, i32 5
  %34 = load double, ptr %33, align 8, !tbaa !31
  store double %34, ptr %14, align 8, !tbaa !11
  call void @llvm.lifetime.start.p0(i64 8, ptr %15) #6
  store ptr null, ptr %15, align 8, !tbaa !24
  call void @llvm.lifetime.start.p0(i64 8, ptr %16) #6
  store ptr null, ptr %16, align 8, !tbaa !24
  call void @llvm.lifetime.start.p0(i64 8, ptr %17) #6
  call void @llvm.lifetime.start.p0(i64 8, ptr %18) #6
  call void @llvm.lifetime.start.p0(i64 8, ptr %19) #6
  call void @llvm.lifetime.start.p0(i64 8, ptr %20) #6
  %35 = load ptr, ptr %7, align 8, !tbaa !15
  %36 = call ptr @N_VGetArrayPointer(ptr noundef %35)
  store ptr %36, ptr %15, align 8, !tbaa !24
  %37 = load ptr, ptr %15, align 8, !tbaa !24
  %38 = call i32 @check_retval(ptr noundef %37, ptr noundef @.str.10, i32 noundef 0)
  %39 = icmp ne i32 %38, 0
  br i1 %39, label %40, label %41

40:                                               ; preds = %4
  store i32 1, ptr %5, align 4
  store i32 1, ptr %21, align 4
  br label %120

41:                                               ; preds = %4
  %42 = load ptr, ptr %8, align 8, !tbaa !15
  %43 = call ptr @N_VGetArrayPointer(ptr noundef %42)
  store ptr %43, ptr %16, align 8, !tbaa !24
  %44 = load ptr, ptr %16, align 8, !tbaa !24
  %45 = call i32 @check_retval(ptr noundef %44, ptr noundef @.str.10, i32 noundef 0)
  %46 = icmp ne i32 %45, 0
  br i1 %46, label %47, label %48

47:                                               ; preds = %41
  store i32 1, ptr %5, align 4
  store i32 1, ptr %21, align 4
  br label %120

48:                                               ; preds = %41
  store i64 0, ptr %20, align 8, !tbaa !13
  br label %49

49:                                               ; preds = %116, %48
  %50 = load i64, ptr %20, align 8, !tbaa !13
  %51 = load i64, ptr %11, align 8, !tbaa !13
  %52 = icmp slt i64 %50, %51
  br i1 %52, label %53, label %119

53:                                               ; preds = %49
  %54 = load ptr, ptr %15, align 8, !tbaa !24
  %55 = load i64, ptr %20, align 8, !tbaa !13
  %56 = mul nsw i64 3, %55
  %57 = add nsw i64 %56, 0
  %58 = getelementptr inbounds double, ptr %54, i64 %57
  %59 = load double, ptr %58, align 8, !tbaa !11
  store double %59, ptr %17, align 8, !tbaa !11
  %60 = load ptr, ptr %15, align 8, !tbaa !24
  %61 = load i64, ptr %20, align 8, !tbaa !13
  %62 = mul nsw i64 3, %61
  %63 = add nsw i64 %62, 1
  %64 = getelementptr inbounds double, ptr %60, i64 %63
  %65 = load double, ptr %64, align 8, !tbaa !11
  store double %65, ptr %18, align 8, !tbaa !11
  %66 = load ptr, ptr %15, align 8, !tbaa !24
  %67 = load i64, ptr %20, align 8, !tbaa !13
  %68 = mul nsw i64 3, %67
  %69 = add nsw i64 %68, 2
  %70 = getelementptr inbounds double, ptr %66, i64 %69
  %71 = load double, ptr %70, align 8, !tbaa !11
  store double %71, ptr %19, align 8, !tbaa !11
  %72 = load double, ptr %12, align 8, !tbaa !11
  %73 = load double, ptr %19, align 8, !tbaa !11
  %74 = fadd double %73, 1.000000e+00
  %75 = load double, ptr %17, align 8, !tbaa !11
  %76 = fneg double %74
  %77 = call double @llvm.fmuladd.f64(double %76, double %75, double %72)
  %78 = load double, ptr %18, align 8, !tbaa !11
  %79 = load double, ptr %17, align 8, !tbaa !11
  %80 = fmul double %78, %79
  %81 = load double, ptr %17, align 8, !tbaa !11
  %82 = call double @llvm.fmuladd.f64(double %80, double %81, double %77)
  %83 = load ptr, ptr %16, align 8, !tbaa !24
  %84 = load i64, ptr %20, align 8, !tbaa !13
  %85 = mul nsw i64 3, %84
  %86 = add nsw i64 %85, 0
  %87 = getelementptr inbounds double, ptr %83, i64 %86
  store double %82, ptr %87, align 8, !tbaa !11
  %88 = load double, ptr %19, align 8, !tbaa !11
  %89 = load double, ptr %17, align 8, !tbaa !11
  %90 = load double, ptr %18, align 8, !tbaa !11
  %91 = load double, ptr %17, align 8, !tbaa !11
  %92 = fmul double %90, %91
  %93 = load double, ptr %17, align 8, !tbaa !11
  %94 = fmul double %92, %93
  %95 = fneg double %94
  %96 = call double @llvm.fmuladd.f64(double %88, double %89, double %95)
  %97 = load ptr, ptr %16, align 8, !tbaa !24
  %98 = load i64, ptr %20, align 8, !tbaa !13
  %99 = mul nsw i64 3, %98
  %100 = add nsw i64 %99, 1
  %101 = getelementptr inbounds double, ptr %97, i64 %100
  store double %96, ptr %101, align 8, !tbaa !11
  %102 = load double, ptr %13, align 8, !tbaa !11
  %103 = load double, ptr %19, align 8, !tbaa !11
  %104 = fsub double %102, %103
  %105 = load double, ptr %14, align 8, !tbaa !11
  %106 = fdiv double %104, %105
  %107 = load double, ptr %19, align 8, !tbaa !11
  %108 = load double, ptr %17, align 8, !tbaa !11
  %109 = fneg double %107
  %110 = call double @llvm.fmuladd.f64(double %109, double %108, double %106)
  %111 = load ptr, ptr %16, align 8, !tbaa !24
  %112 = load i64, ptr %20, align 8, !tbaa !13
  %113 = mul nsw i64 3, %112
  %114 = add nsw i64 %113, 2
  %115 = getelementptr inbounds double, ptr %111, i64 %114
  store double %110, ptr %115, align 8, !tbaa !11
  br label %116

116:                                              ; preds = %53
  %117 = load i64, ptr %20, align 8, !tbaa !13
  %118 = add nsw i64 %117, 1
  store i64 %118, ptr %20, align 8, !tbaa !13
  br label %49

119:                                              ; preds = %49
  store i32 0, ptr %5, align 4
  store i32 1, ptr %21, align 4
  br label %120

120:                                              ; preds = %119, %47, %40
  call void @llvm.lifetime.end.p0(i64 8, ptr %20) #6
  call void @llvm.lifetime.end.p0(i64 8, ptr %19) #6
  call void @llvm.lifetime.end.p0(i64 8, ptr %18) #6
  call void @llvm.lifetime.end.p0(i64 8, ptr %17) #6
  call void @llvm.lifetime.end.p0(i64 8, ptr %16) #6
  call void @llvm.lifetime.end.p0(i64 8, ptr %15) #6
  call void @llvm.lifetime.end.p0(i64 8, ptr %14) #6
  call void @llvm.lifetime.end.p0(i64 8, ptr %13) #6
  call void @llvm.lifetime.end.p0(i64 8, ptr %12) #6
  call void @llvm.lifetime.end.p0(i64 8, ptr %11) #6
  call void @llvm.lifetime.end.p0(i64 8, ptr %10) #6
  %121 = load i32, ptr %5, align 4
  ret i32 %121
}