; Function Attrs: nounwind uwtable
define internal range(i32 0, 2) i32 @ff(double %0, ptr noundef %1, ptr noundef %2, ptr noundef readonly captures(none) %3) #0 {
  %5 = load i64, ptr %3, align 8, !tbaa !12
  %6 = getelementptr inbounds nuw i8, ptr %3, i64 16
  %7 = load double, ptr %6, align 8, !tbaa !16
  %8 = getelementptr inbounds nuw i8, ptr %3, i64 24
  %9 = load double, ptr %8, align 8, !tbaa !17
  %10 = getelementptr inbounds nuw i8, ptr %3, i64 40
  %11 = load double, ptr %10, align 8, !tbaa !19
  %12 = tail call ptr @N_VGetArrayPointer(ptr noundef %1) #10
  %13 = icmp eq ptr %12, null
  br i1 %13, label %.loopexit.sink.split, label %14

14:                                               ; preds = %4
  %15 = tail call ptr @N_VGetArrayPointer(ptr noundef %2) #10
  %16 = icmp eq ptr %15, null
  br i1 %16, label %.loopexit.sink.split, label %check_retval.exit43.preheader

check_retval.exit43.preheader:                    ; preds = %14
  %17 = icmp sgt i64 %5, 0
  br i1 %17, label %check_retval.exit43, label %.loopexit

check_retval.exit43:                              ; preds = %check_retval.exit43.preheader, %check_retval.exit43
  %.048 = phi i64 [ %42, %check_retval.exit43 ], [ 0, %check_retval.exit43.preheader ]
  %18 = mul nuw nsw i64 %.048, 3
  %19 = getelementptr inbounds nuw double, ptr %12, i64 %18
  %20 = load double, ptr %19, align 8, !tbaa !25
  %21 = add nuw nsw i64 %18, 1
  %22 = getelementptr inbounds nuw double, ptr %12, i64 %21
  %23 = load double, ptr %22, align 8, !tbaa !25
  %24 = add nuw nsw i64 %18, 2
  %25 = getelementptr inbounds nuw double, ptr %12, i64 %24
  %26 = load double, ptr %25, align 8, !tbaa !25
  %27 = fadd double %26, 1.000000e+00
  %28 = fneg double %27
  %29 = tail call double @llvm.fmuladd.f64(double %28, double %20, double %7)
  %30 = fmul double %20, %23
  %31 = tail call double @llvm.fmuladd.f64(double %30, double %20, double %29)
  %32 = getelementptr inbounds nuw double, ptr %15, i64 %18
  store double %31, ptr %32, align 8, !tbaa !25
  %33 = fneg double %20
  %34 = fmul double %30, %33
  %35 = tail call double @llvm.fmuladd.f64(double %26, double %20, double %34)
  %36 = getelementptr inbounds nuw double, ptr %15, i64 %21
  store double %35, ptr %36, align 8, !tbaa !25
  %37 = fsub double %9, %26
  %38 = fdiv double %37, %11
  %39 = fneg double %26
  %40 = tail call double @llvm.fmuladd.f64(double %39, double %20, double %38)
  %41 = getelementptr inbounds nuw double, ptr %15, i64 %24
  store double %40, ptr %41, align 8, !tbaa !25
  %42 = add nuw nsw i64 %.048, 1
  %exitcond.not = icmp eq i64 %42, %5
  br i1 %exitcond.not, label %.loopexit, label %check_retval.exit43

.loopexit.sink.split:                             ; preds = %14, %4
  %43 = load ptr, ptr @stderr, align 8, !tbaa !10
  %44 = tail call i32 (ptr, ptr, ...) @fprintf(ptr noundef %43, ptr noundef nonnull @.str.53, ptr noundef nonnull @.str.10) #11
  br label %.loopexit

.loopexit:                                        ; preds = %check_retval.exit43, %.loopexit.sink.split, %check_retval.exit43.preheader
  %.040 = phi i32 [ 0, %check_retval.exit43.preheader ], [ 1, %.loopexit.sink.split ], [ 0, %check_retval.exit43 ]
  ret i32 %.040
}